; Function Attrs: mustprogress nofree norecurse nosync nounwind willreturn memory(argmem: read) uwtable
define noundef i64 @_ZNK32pxrInternal_v0_24__pxrReserved__10TraceEvent17GetStartTimeStampEv(ptr nocapture noundef nonnull readonly align 8 dereferenceable(32) %0) local_unnamed_addr #0 align 2 {
  %2 = getelementptr inbounds nuw i8, ptr %0, i64 13
  %3 = load i8, ptr %2, align 1
  %.not = icmp eq i8 %3, 2
  %4 = getelementptr inbounds nuw i8, ptr %0, i64 24
  %5 = load i64, ptr %4, align 8
  %6 = select i1 %.not, i64 %5, i64 0
  ret i64 %6
}